target datalayout = "e-m:e-p270:32:32-p271:32:32-p272:64:64-i64:64-i128:128-f80:128-n8:16:32:64-S128"
target triple = "x86_64-pc-linux-gnu"

%"class.cvc5::internal::theory::quantifiers::InstStrategyEnum" = type <{ %"class.cvc5::internal::theory::quantifiers::QuantifiersModule", ptr, i32, [4 x i8] }>
%"class.cvc5::internal::theory::quantifiers::QuantifiersModule" = type { %"class.cvc5::internal::EnvObj", ptr, ptr, ptr, ptr }
%"class.cvc5::internal::EnvObj" = type { ptr, ptr }

; Function Attrs: mustprogress uwtable
define hidden void @_ZN4cvc58internal6theory11quantifiers16InstStrategyEnumC2ERNS0_3EnvERNS2_16QuantifiersStateERNS2_27QuantifiersInferenceManagerERNS2_19QuantifiersRegistryERNS2_12TermRegistryEPNS2_14RelevantDomainE(ptr noundef nonnull align 8 dereferenceable(60) %0, ptr noundef nonnull align 8 dereferenceable(696) %1, ptr noundef nonnull align 8 dereferenceable(376) %2, ptr noundef nonnull align 8 dereferenceable(384) %3, ptr noundef nonnull align 8 dereferenceable(568) %4, ptr noundef nonnull align 8 dereferenceable(104) %5, ptr noundef %6) unnamed_addr #4 align 2 {
  %8 = alloca ptr, align 8
  %9 = alloca ptr, align 8
  %10 = alloca ptr, align 8
  %11 = alloca ptr, align 8
  %12 = alloca ptr, align 8
  %13 = alloca ptr, align 8
  %14 = alloca ptr, align 8
  store ptr %0, ptr %8, align 8, !tbaa !3
  store ptr %1, ptr %9, align 8, !tbaa !8
  store ptr %2, ptr %10, align 8, !tbaa !10
  store ptr %3, ptr %11, align 8, !tbaa !12
  store ptr %4, ptr %12, align 8, !tbaa !14
  store ptr %5, ptr %13, align 8, !tbaa !16
  store ptr %6, ptr %14, align 8, !tbaa !18
  %15 = load ptr, ptr %8, align 8
  %16 = load ptr, ptr %9, align 8, !tbaa !8
  %17 = load ptr, ptr %10, align 8, !tbaa !10
  %18 = load ptr, ptr %11, align 8, !tbaa !12
  %19 = load ptr, ptr %12, align 8, !tbaa !14
  %20 = load ptr, ptr %13, align 8, !tbaa !16
  call void @_ZN4cvc58internal6theory11quantifiers17QuantifiersModuleC2ERNS0_3EnvERNS2_16QuantifiersStateERNS2_27QuantifiersInferenceManagerERNS2_19QuantifiersRegistryERNS2_12TermRegistryE(ptr noundef nonnull align 8 dereferenceable(48) %15, ptr noundef nonnull align 8 dereferenceable(696) %16, ptr noundef nonnull align 8 dereferenceable(376) %17, ptr noundef nonnull align 8 dereferenceable(384) %18, ptr noundef nonnull align 8 dereferenceable(568) %19, ptr noundef nonnull align 8 dereferenceable(104) %20)
  store ptr getelementptr inbounds inrange(-16, 120) ({ [17 x ptr] }, ptr @_ZTVN4cvc58internal6theory11quantifiers16InstStrategyEnumE, i32 0, i32 0, i32 2), ptr %15, align 8, !tbaa !20
  %21 = getelementptr inbounds nuw %"class.cvc5::internal::theory::quantifiers::InstStrategyEnum", ptr %15, i32 0, i32 1
  %22 = load ptr, ptr %14, align 8, !tbaa !18
  store ptr %22, ptr %21, align 8, !tbaa !22
  %23 = getelementptr inbounds nuw %"class.cvc5::internal::theory::quantifiers::InstStrategyEnum", ptr %15, i32 0, i32 2
  store i32 -1, ptr %23, align 8, !tbaa !27
  ret void
}