; Function Attrs: mustprogress uwtable
define hidden void @_ZN4cvc58internal6theory11quantifiers16InstStrategyEnumC2ERNS0_3EnvERNS2_16QuantifiersStateERNS2_27QuantifiersInferenceManagerERNS2_19QuantifiersRegistryERNS2_12TermRegistryEPNS2_14RelevantDomainE(ptr noundef nonnull align 8 dereferenceable(60) %0, ptr noundef nonnull align 8 dereferenceable(696) %1, ptr noundef nonnull align 8 dereferenceable(376) %2, ptr noundef nonnull align 8 dereferenceable(384) %3, ptr noundef nonnull align 8 dereferenceable(568) %4, ptr noundef nonnull align 8 dereferenceable(104) %5, ptr noundef %6) unnamed_addr #3 align 2 {
  tail call void @_ZN4cvc58internal6theory11quantifiers17QuantifiersModuleC2ERNS0_3EnvERNS2_16QuantifiersStateERNS2_27QuantifiersInferenceManagerERNS2_19QuantifiersRegistryERNS2_12TermRegistryE(ptr noundef nonnull align 8 dereferenceable(48) %0, ptr noundef nonnull align 8 dereferenceable(696) %1, ptr noundef nonnull align 8 dereferenceable(376) %2, ptr noundef nonnull align 8 dereferenceable(384) %3, ptr noundef nonnull align 8 dereferenceable(568) %4, ptr noundef nonnull align 8 dereferenceable(104) %5)
  store ptr getelementptr inbounds nuw inrange(-16, 120) (i8, ptr @_ZTVN4cvc58internal6theory11quantifiers16InstStrategyEnumE, i64 16), ptr %0, align 8, !tbaa !3
  %8 = getelementptr inbounds nuw i8, ptr %0, i64 48
  store ptr %6, ptr %8, align 8, !tbaa !6
  %9 = getelementptr inbounds nuw i8, ptr %0, i64 56
  store i32 -1, ptr %9, align 8, !tbaa !19
  ret void
}